; Function Attrs: nounwind uwtable
define dso_local range(i32 -1, 3) i32 @parse_fetch_recurse_submodules_arg(ptr noundef %0, ptr noundef %1) local_unnamed_addr #0 {
  %3 = tail call i32 @git_parse_maybe_bool(ptr noundef %1) #15
  switch i32 %3, label %5 [
    i32 1, label %parse_fetch_recurse.exit
    i32 0, label %4
  ]

4:                                                ; preds = %2
  br label %parse_fetch_recurse.exit

5:                                                ; preds = %2
  %6 = tail call i32 @strcmp(ptr noundef nonnull dereferenceable(1) %1, ptr noundef nonnull dereferenceable(10) @.str.13) #16
  %.not.i = icmp eq i32 %6, 0
  br i1 %.not.i, label %parse_fetch_recurse.exit, label %7

7:                                                ; preds = %5
  tail call void (ptr, ...) @die(ptr noundef nonnull @.str.14, ptr noundef %0, ptr noundef nonnull %1) #17
  unreachable

parse_fetch_recurse.exit:                         ; preds = %2, %4, %5
  %.0.i = phi i32 [ 0, %4 ], [ 2, %2 ], [ -1, %5 ]
  ret i32 %.0.i
}